; ModuleID = '19/1308.c'
source_filename = "19/1308.c"
target datalayout = "e-m:e-p270:32:32-p271:32:32-p272:64:64-i64:64-f80:128-n8:16:32:64-S128"
target triple = "x86_64-pc-linux-gnu"

@.str = private unnamed_addr constant [2 x i8] c" \00", align 1
@.str.1 = private unnamed_addr constant [3 x i8] c"%s\00", align 1

; Function Attrs: noinline nounwind uwtable
define dso_local i32 @main() #0 {
  %1 = alloca i32, align 4
  %2 = alloca [100 x i8], align 16
  %3 = alloca [100 x [100 x i8]], align 16
  %4 = alloca [100 x i8], align 16
  %5 = alloca [100 x i8], align 16
  %6 = alloca i32, align 4
  %7 = alloca i32, align 4
  %8 = alloca i32, align 4
  %9 = alloca i32, align 4
  %10 = alloca i32, align 4
  %11 = alloca i32, align 4
  store i32 0, i32* %1, align 4
  %12 = bitcast [100 x [100 x i8]]* %3 to i8*
  call void @llvm.memset.p0i8.i64(i8* align 16 %12, i8 0, i64 10000, i1 false)
  store i32 0, i32* %8, align 4
  store i32 0, i32* %9, align 4
  store i32 0, i32* %10, align 4
  %13 = getelementptr inbounds [100 x i8], [100 x i8]* %2, i64 0, i64 0
  %14 = call i32 (i8*, ...) bitcast (i32 (...)* @gets to i32 (i8*, ...)*)(i8* %13)
  %15 = getelementptr inbounds [100 x i8], [100 x i8]* %4, i64 0, i64 0
  %16 = call i32 (i8*, ...) bitcast (i32 (...)* @gets to i32 (i8*, ...)*)(i8* %15)
  %17 = getelementptr inbounds [100 x i8], [100 x i8]* %5, i64 0, i64 0
  %18 = call i32 (i8*, ...) bitcast (i32 (...)* @gets to i32 (i8*, ...)*)(i8* %17)
  %19 = getelementptr inbounds [100 x i8], [100 x i8]* %2, i64 0, i64 0
  %20 = call i64 @strlen(i8* %19) #5
  %21 = trunc i64 %20 to i32
  store i32 %21, i32* %11, align 4
  store i32 0, i32* %6, align 4
  br label %22

22:                                               ; preds = %82, %0
  %23 = load i32, i32* %6, align 4
  %24 = load i32, i32* %11, align 4
  %25 = icmp slt i32 %23, %24
  br i1 %25, label %26, label %85

26:                                               ; preds = %22
  %27 = load i32, i32* %6, align 4
  %28 = sext i32 %27 to i64
  %29 = getelementptr inbounds [100 x i8], [100 x i8]* %2, i64 0, i64 %28
  %30 = load i8, i8* %29, align 1
  %31 = sext i8 %30 to i32
  %32 = icmp eq i32 %31, 32
  br i1 %32, label %38, label %33

33:                                               ; preds = %26
  %34 = load i32, i32* %6, align 4
  %35 = load i32, i32* %11, align 4
  %36 = sub nsw i32 %35, 1
  %37 = icmp eq i32 %34, %36
  br i1 %37, label %38, label %81

38:                                               ; preds = %33, %26
  %39 = load i32, i32* %8, align 4
  store i32 %39, i32* %7, align 4
  br label %40

40:                                               ; preds = %55, %38
  %41 = load i32, i32* %7, align 4
  %42 = load i32, i32* %6, align 4
  %43 = icmp slt i32 %41, %42
  br i1 %43, label %44, label %60

44:                                               ; preds = %40
  %45 = load i32, i32* %7, align 4
  %46 = sext i32 %45 to i64
  %47 = getelementptr inbounds [100 x i8], [100 x i8]* %2, i64 0, i64 %46
  %48 = load i8, i8* %47, align 1
  %49 = load i32, i32* %9, align 4
  %50 = sext i32 %49 to i64
  %51 = getelementptr inbounds [100 x [100 x i8]], [100 x [100 x i8]]* %3, i64 0, i64 %50
  %52 = load i32, i32* %10, align 4
  %53 = sext i32 %52 to i64
  %54 = getelementptr inbounds [100 x i8], [100 x i8]* %51, i64 0, i64 %53
  store i8 %48, i8* %54, align 1
  br label %55

55:                                               ; preds = %44
  %56 = load i32, i32* %7, align 4
  %57 = add nsw i32 %56, 1
  store i32 %57, i32* %7, align 4
  %58 = load i32, i32* %10, align 4
  %59 = add nsw i32 %58, 1
  store i32 %59, i32* %10, align 4
  br label %40

60:                                               ; preds = %40
  %61 = load i32, i32* %6, align 4
  %62 = load i32, i32* %11, align 4
  %63 = sub nsw i32 %62, 1
  %64 = icmp eq i32 %61, %63
  br i1 %64, label %65, label %76

65:                                               ; preds = %60
  %66 = load i32, i32* %6, align 4
  %67 = sext i32 %66 to i64
  %68 = getelementptr inbounds [100 x i8], [100 x i8]* %2, i64 0, i64 %67
  %69 = load i8, i8* %68, align 1
  %70 = load i32, i32* %9, align 4
  %71 = sext i32 %70 to i64
  %72 = getelementptr inbounds [100 x [100 x i8]], [100 x [100 x i8]]* %3, i64 0, i64 %71
  %73 = load i32, i32* %10, align 4
  %74 = sext i32 %73 to i64
  %75 = getelementptr inbounds [100 x i8], [100 x i8]* %72, i64 0, i64 %74
  store i8 %69, i8* %75, align 1
  br label %76

76:                                               ; preds = %65, %60
  %77 = load i32, i32* %9, align 4
  %78 = add nsw i32 %77, 1
  store i32 %78, i32* %9, align 4
  store i32 0, i32* %10, align 4
  %79 = load i32, i32* %6, align 4
  %80 = add nsw i32 %79, 1
  store i32 %80, i32* %8, align 4
  br label %81

81:                                               ; preds = %76, %33
  br label %82

82:                                               ; preds = %81
  %83 = load i32, i32* %6, align 4
  %84 = add nsw i32 %83, 1
  store i32 %84, i32* %6, align 4
  br label %22

85:                                               ; preds = %22
  store i32 0, i32* %6, align 4
  br label %86

86:                                               ; preds = %106, %85
  %87 = load i32, i32* %6, align 4
  %88 = load i32, i32* %9, align 4
  %89 = icmp slt i32 %87, %88
  br i1 %89, label %90, label %109

90:                                               ; preds = %86
  %91 = load i32, i32* %6, align 4
  %92 = sext i32 %91 to i64
  %93 = getelementptr inbounds [100 x [100 x i8]], [100 x [100 x i8]]* %3, i64 0, i64 %92
  %94 = getelementptr inbounds [100 x i8], [100 x i8]* %93, i64 0, i64 0
  %95 = getelementptr inbounds [100 x i8], [100 x i8]* %4, i64 0, i64 0
  %96 = call i32 @strcmp(i8* %94, i8* %95) #5
  %97 = icmp eq i32 %96, 0
  br i1 %97, label %98, label %105

98:                                               ; preds = %90
  %99 = load i32, i32* %6, align 4
  %100 = sext i32 %99 to i64
  %101 = getelementptr inbounds [100 x [100 x i8]], [100 x [100 x i8]]* %3, i64 0, i64 %100
  %102 = getelementptr inbounds [100 x i8], [100 x i8]* %101, i64 0, i64 0
  %103 = getelementptr inbounds [100 x i8], [100 x i8]* %5, i64 0, i64 0
  %104 = call i8* @strcpy(i8* %102, i8* %103) #6
  br label %105

105:                                              ; preds = %98, %90
  br label %106

106:                                              ; preds = %105
  %107 = load i32, i32* %6, align 4
  %108 = add nsw i32 %107, 1
  store i32 %108, i32* %6, align 4
  br label %86

109:                                              ; preds = %86
  store i32 0, i32* %6, align 4
  br label %110

110:                                              ; preds = %125, %109
  %111 = load i32, i32* %6, align 4
  %112 = load i32, i32* %9, align 4
  %113 = icmp slt i32 %111, %112
  br i1 %113, label %114, label %128

114:                                              ; preds = %110
  %115 = load i32, i32* %6, align 4
  %116 = icmp ne i32 %115, 0
  br i1 %116, label %117, label %119

117:                                              ; preds = %114
  %118 = call i32 (i8*, ...) @printf(i8* getelementptr inbounds ([2 x i8], [2 x i8]* @.str, i64 0, i64 0))
  br label %119

119:                                              ; preds = %117, %114
  %120 = load i32, i32* %6, align 4
  %121 = sext i32 %120 to i64
  %122 = getelementptr inbounds [100 x [100 x i8]], [100 x [100 x i8]]* %3, i64 0, i64 %121
  %123 = getelementptr inbounds [100 x i8], [100 x i8]* %122, i64 0, i64 0
  %124 = call i32 (i8*, ...) @printf(i8* getelementptr inbounds ([3 x i8], [3 x i8]* @.str.1, i64 0, i64 0), i8* %123)
  br label %125

125:                                              ; preds = %119
  %126 = load i32, i32* %6, align 4
  %127 = add nsw i32 %126, 1
  store i32 %127, i32* %6, align 4
  br label %110

128:                                              ; preds = %110
  ret i32 0
}

; Function Attrs: argmemonly nounwind willreturn
declare void @llvm.memset.p0i8.i64(i8* nocapture writeonly, i8, i64, i1 immarg) #1

declare dso_local i32 @gets(...) #2

; Function Attrs: nounwind readonly
declare dso_local i64 @strlen(i8*) #3

; Function Attrs: nounwind readonly
declare dso_local i32 @strcmp(i8*, i8*) #3

; Function Attrs: nounwind
declare dso_local i8* @strcpy(i8*, i8*) #4

declare dso_local i32 @printf(i8*, ...) #2


!llvm.module.flags = !{!0}
!llvm.ident = !{!1}

!0 = !{i32 1, !"wchar_size", i32 4}
!1 = !{!"clang version 10.0.0-4ubuntu1 "}
